Certificate:
    Data:
        Version: 3 (0x2)
        Serial Number: 5 (0x5)
        Signature Algorithm: sha256WithRSAEncryption
        Issuer: C=PT, ST=Coimbra, L=Coimbra, O=UC, OU=FCTUC-DEI, CN=MyCA
        Validity
            Not Before: Mar 13 18:21:18 2021 GMT
            Not After : Mar 13 18:21:18 2022 GMT
        Subject: C=PT, ST=Coimbra, O=UC, OU=FCTUC-DEI, CN=10.1.0.2
        Subject Public Key Info:
            Public Key Algorithm: rsaEncryption
                RSA Public-Key: (2048 bit)
                Modulus:
                    00:d3:6f:b0:c7:30:f8:3e:2a:23:99:d8:96:6a:25:
                    0f:6f:a9:f9:7f:e8:84:bd:4b:72:f9:c9:a4:d5:81:
                    db:d5:7d:75:96:e3:9b:d5:12:7d:9e:a3:af:fe:14:
                    92:b3:85:64:73:0b:0a:36:ed:27:15:03:a8:ee:29:
                    67:d8:a1:d9:e2:1b:f5:e5:ff:23:fa:99:16:5c:3f:
                    12:2b:1d:50:2e:30:8d:cd:a7:84:80:6a:8d:58:d6:
                    bf:8b:67:82:0f:15:46:61:81:2e:1d:49:c3:4f:f6:
                    91:19:b9:9d:a4:fb:d5:e8:8b:d9:6f:f3:4c:8b:8c:
                    59:16:b0:53:95:10:92:f6:d7:dc:7d:00:32:ca:bb:
                    c2:7c:b8:00:8f:58:4b:40:20:1c:9b:4f:ec:7c:09:
                    02:52:ff:d5:a1:cf:5d:be:5c:6d:47:02:3d:8f:e0:
                    2e:ff:77:0c:a8:a0:e4:b5:c9:05:12:e9:49:69:3e:
                    a2:62:e9:fc:80:07:8d:ad:cc:5b:f3:f5:00:4c:2e:
                    8f:44:21:92:43:8f:43:25:75:27:45:1e:cf:d9:a3:
                    f8:87:a2:97:68:b5:2c:b4:b7:4e:06:53:aa:b7:ef:
                    b9:d5:6b:7d:a0:4f:d7:36:d0:df:c8:0f:1d:83:e2:
                    7e:41:7d:eb:3a:ef:52:24:bf:39:18:34:8d:91:6c:
                    e6:a5
                Exponent: 65537 (0x10001)
        X509v3 extensions:
            X509v3 Basic Constraints: 
                CA:FALSE
            Netscape Comment: 
                OpenSSL Generated Certificate
            X509v3 Subject Key Identifier: 
                E4:19:0D:90:07:A7:89:DC:86:5E:B3:76:FB:A0:07:64:2C:19:38:85
            X509v3 Authority Key Identifier: 
                DirName:/C=PT/ST=Coimbra/L=Coimbra/O=UC/OU=FCTUC-DEI/CN=MyCA
                serial:67:52:42:AE:E8:B0:1A:F8:70:2F:9E:D4:11:BB:F6:FE:44:08:79:62

    Signature Algorithm: sha256WithRSAEncryption
         53:02:38:05:06:2d:ec:ea:c1:c5:e3:a8:9a:b0:92:d5:72:c3:
         c8:83:ad:75:6d:6e:93:e5:5b:9b:fd:d5:91:91:32:93:86:34:
         a6:39:65:44:4e:d8:ce:6e:de:09:ee:11:a8:5c:1d:b0:7c:31:
         09:d0:38:17:c6:9f:dc:1e:7b:a1:75:ca:07:09:5a:70:a3:b6:
         8b:fc:a4:54:92:a5:4f:65:2a:c7:b8:34:62:4f:e3:ef:0d:62:
         c4:05:20:56:22:88:9b:92:9f:b9:2c:cd:cf:e2:35:2a:03:1f:
         7b:37:b0:13:2b:39:6c:5e:f7:47:c3:5d:17:e1:45:c4:5e:93:
         77:f0:a0:40:0a:52:04:40:84:58:f0:6c:4a:fa:d6:a6:74:f3:
         47:9a:f3:59:4e:2c:3c:a6:68:a8:3b:a5:6d:0c:73:01:28:1b:
         68:15:5c:2a:1e:61:c5:ff:75:dd:a6:fc:84:86:86:4c:d6:23:
         fd:95:23:a0:0a:db:c6:95:af:a2:57:6c:2f:a1:29:36:5b:e2:
         7a:f7:f6:87:b7:ff:f9:de:69:2b:d0:e2:31:57:94:0f:88:ec:
         c1:09:78:90:df:c1:2e:f4:ef:89:f2:84:e8:20:79:b2:f1:ee:
         eb:f9:4c:57:51:29:9c:e6:71:f1:a3:0a:ae:c7:72:b6:87:8b:
         a6:7b:fd:56
-----BEGIN CERTIFICATE-----
MIIEFDCCAvygAwIBAgIBBTANBgkqhkiG9w0BAQsFADBhMQswCQYDVQQGEwJQVDEQ
MA4GA1UECAwHQ29pbWJyYTEQMA4GA1UEBwwHQ29pbWJyYTELMAkGA1UECgwCVUMx
EjAQBgNVBAsMCUZDVFVDLURFSTENMAsGA1UEAwwETXlDQTAeFw0yMTAzMTMxODIx
MThaFw0yMjAzMTMxODIxMThaMFMxCzAJBgNVBAYTAlBUMRAwDgYDVQQIDAdDb2lt
YnJhMQswCQYDVQQKDAJVQzESMBAGA1UECwwJRkNUVUMtREVJMREwDwYDVQQDDAgx
MC4xLjAuMjCCASIwDQYJKoZIhvcNAQEBBQADggEPADCCAQoCggEBANNvsMcw+D4q
I5nYlmolD2+p+X/ohL1LcvnJpNWB29V9dZbjm9USfZ6jr/4UkrOFZHMLCjbtJxUD
qO4pZ9ih2eIb9eX/I/qZFlw/EisdUC4wjc2nhIBqjVjWv4tngg8VRmGBLh1Jw0/2
kRm5naT71eiL2W/zTIuMWRawU5UQkvbX3H0AMsq7wny4AI9YS0AgHJtP7HwJAlL/
1aHPXb5cbUcCPY/gLv93DKig5LXJBRLpSWk+omLp/IAHja3MW/P1AEwuj0QhkkOP
QyV1J0Uez9mj+Ieil2i1LLS3TgZTqrfvudVrfaBP1zbQ38gPHYPifkF96zrvUiS/
ORg0jZFs5qUCAwEAAaOB5DCB4TAJBgNVHRMEAjAAMCwGCWCGSAGG+EIBDQQfFh1P
cGVuU1NMIEdlbmVyYXRlZCBDZXJ0aWZpY2F0ZTAdBgNVHQ4EFgQU5BkNkAenidyG
XrN2+6AHZCwZOIUwgYYGA1UdIwR/MH2hZaRjMGExCzAJBgNVBAYTAlBUMRAwDgYD
VQQIDAdDb2ltYnJhMRAwDgYDVQQHDAdDb2ltYnJhMQswCQYDVQQKDAJVQzESMBAG
A1UECwwJRkNUVUMtREVJMQ0wCwYDVQQDDARNeUNBghRnUkKu6LAa+HAvntQRu/b+
RAh5YjANBgkqhkiG9w0BAQsFAAOCAQEAUwI4BQYt7OrBxeOomrCS1XLDyIOtdW1u
k+Vbm/3VkZEyk4Y0pjllRE7Yzm7eCe4RqFwdsHwxCdA4F8af3B57oXXKBwlacKO2
i/ykVJKlT2Uqx7g0Yk/j7w1ixAUgViKIm5KfuSzNz+I1KgMfezewEys5bF73R8Nd
F+FFxF6Td/CgQApSBECEWPBsSvrWpnTzR5rzWU4sPKZoqDulbQxzASgbaBVcKh5h
xf913ab8hIaGTNYj/ZUjoArbxpWvoldsL6EpNlvievf2h7f/+d5pK9DiMVeUD4js
wQl4kN/BLvTvifKE6CB5svHu6/lMV1EpnOZx8aMKrsdytoeLpnv9Vg==
-----END CERTIFICATE-----
