Certificate:
    Data:
        Version: 3 (0x2)
        Serial Number: 2 (0x2)
        Signature Algorithm: sha256WithRSAEncryption
        Issuer: C=PT, ST=Coimbra, L=Coimbra, O=UC, OU=FCTUC-DEI, CN=MyCA
        Validity
            Not Before: Mar 14 14:40:44 2021 GMT
            Not After : Mar 14 14:40:44 2022 GMT
        Subject: C=PT, ST=Coimbra, O=UC, OU=FCTUC-DEI, CN=USER2
        Subject Public Key Info:
            Public Key Algorithm: rsaEncryption
                RSA Public-Key: (2048 bit)
                Modulus:
                    00:dc:16:8f:01:f1:69:56:c7:6c:87:c8:14:5f:29:
                    0a:8d:68:11:c0:93:71:df:ae:ff:7d:f9:12:6d:e5:
                    47:cf:82:09:c9:be:55:3d:bd:68:18:81:ed:eb:94:
                    97:4f:2a:f5:13:a7:ad:a8:a1:82:b3:45:3f:a1:5e:
                    8f:98:e3:73:c9:23:44:33:25:ef:43:39:9d:18:e5:
                    ed:a6:f5:e0:24:2c:e0:33:32:a2:b0:ba:3f:bc:b5:
                    a4:20:35:5a:e5:05:3a:92:0f:87:1c:0a:85:e1:36:
                    84:43:80:ae:33:db:cd:74:d2:9b:ce:12:93:11:b4:
                    90:0d:f6:bc:2e:8d:db:71:f3:72:2b:65:bf:f0:61:
                    e9:06:ca:1a:2b:70:0a:9e:65:00:de:d5:6e:29:03:
                    1f:c2:96:31:26:dd:19:37:24:56:c5:41:1c:9a:2a:
                    a3:46:c0:54:24:ec:f5:e4:7d:0e:21:87:5f:33:fb:
                    c8:49:6d:7f:16:e2:4e:17:5a:41:ce:13:3b:cb:a1:
                    84:41:52:6d:3d:b0:ba:1c:e3:07:a6:03:87:71:5a:
                    fa:c0:6f:96:95:a6:46:67:55:86:fa:fa:a9:72:2b:
                    56:e6:86:80:e3:76:3b:13:b0:92:2d:84:cf:c7:17:
                    34:9c:60:48:9f:91:31:2f:c3:c2:9e:34:95:5e:51:
                    e8:49
                Exponent: 65537 (0x10001)
        X509v3 extensions:
            X509v3 Basic Constraints: 
                CA:FALSE
            Netscape Comment: 
                OpenSSL Generated Certificate
            X509v3 Subject Key Identifier: 
                62:19:05:1F:7D:1A:43:B2:2C:B5:11:40:21:71:97:DA:6D:6D:20:5B
            X509v3 Authority Key Identifier: 
                DirName:/C=PT/ST=Coimbra/L=Coimbra/O=UC/OU=FCTUC-DEI/CN=MyCA
                serial:67:52:42:AE:E8:B0:1A:F8:70:2F:9E:D4:11:BB:F6:FE:44:08:79:62

    Signature Algorithm: sha256WithRSAEncryption
         25:b8:df:6b:3d:06:80:60:76:bc:e2:78:6b:ce:40:fd:b4:95:
         a1:10:27:46:5e:3e:68:1b:5a:27:31:c2:5c:42:c8:dd:08:41:
         28:6b:9c:02:6f:68:11:8a:fd:85:59:0b:1f:ae:79:69:23:09:
         bb:af:34:1f:52:f9:69:0b:cf:b6:2b:70:21:3d:21:42:7d:83:
         1c:75:39:56:dc:51:a9:c5:ce:99:34:0f:50:b7:25:93:f4:eb:
         1f:79:dc:e3:fa:71:da:55:79:ab:e4:79:67:1d:e9:af:6b:22:
         05:6d:b0:83:8a:fa:bb:b2:11:6a:5b:b3:d0:52:7e:63:7f:78:
         7b:de:10:56:f0:dc:ef:68:ff:c2:c9:c5:96:b5:34:a3:97:de:
         e2:9b:d7:c5:51:47:79:be:00:5c:bb:79:e2:70:8e:a4:21:3a:
         c9:c3:8e:20:a4:73:da:21:04:a7:a6:63:d5:d9:26:5c:d6:41:
         dd:b6:82:a6:88:94:ab:a8:88:1e:cf:04:bb:5c:85:c5:03:ed:
         70:18:da:92:0a:13:f9:fc:aa:38:95:04:3a:5a:8c:94:2f:c7:
         09:52:38:49:b0:55:61:92:3d:a4:b2:0e:26:0b:b7:b5:7a:fc:
         62:d2:86:06:a9:32:92:f1:0f:34:53:02:79:65:f9:0c:09:9d:
         60:d1:16:10
-----BEGIN CERTIFICATE-----
MIIEETCCAvmgAwIBAgIBAjANBgkqhkiG9w0BAQsFADBhMQswCQYDVQQGEwJQVDEQ
MA4GA1UECAwHQ29pbWJyYTEQMA4GA1UEBwwHQ29pbWJyYTELMAkGA1UECgwCVUMx
EjAQBgNVBAsMCUZDVFVDLURFSTENMAsGA1UEAwwETXlDQTAeFw0yMTAzMTQxNDQw
NDRaFw0yMjAzMTQxNDQwNDRaMFAxCzAJBgNVBAYTAlBUMRAwDgYDVQQIDAdDb2lt
YnJhMQswCQYDVQQKDAJVQzESMBAGA1UECwwJRkNUVUMtREVJMQ4wDAYDVQQDDAVV
U0VSMjCCASIwDQYJKoZIhvcNAQEBBQADggEPADCCAQoCggEBANwWjwHxaVbHbIfI
FF8pCo1oEcCTcd+u/335Em3lR8+CCcm+VT29aBiB7euUl08q9ROnraihgrNFP6Fe
j5jjc8kjRDMl70M5nRjl7ab14CQs4DMyorC6P7y1pCA1WuUFOpIPhxwKheE2hEOA
rjPbzXTSm84SkxG0kA32vC6N23Hzcitlv/Bh6QbKGitwCp5lAN7VbikDH8KWMSbd
GTckVsVBHJoqo0bAVCTs9eR9DiGHXzP7yEltfxbiThdaQc4TO8uhhEFSbT2wuhzj
B6YDh3Fa+sBvlpWmRmdVhvr6qXIrVuaGgON2OxOwki2Ez8cXNJxgSJ+RMS/Dwp40
lV5R6EkCAwEAAaOB5DCB4TAJBgNVHRMEAjAAMCwGCWCGSAGG+EIBDQQfFh1PcGVu
U1NMIEdlbmVyYXRlZCBDZXJ0aWZpY2F0ZTAdBgNVHQ4EFgQUYhkFH30aQ7IstRFA
IXGX2m1tIFswgYYGA1UdIwR/MH2hZaRjMGExCzAJBgNVBAYTAlBUMRAwDgYDVQQI
DAdDb2ltYnJhMRAwDgYDVQQHDAdDb2ltYnJhMQswCQYDVQQKDAJVQzESMBAGA1UE
CwwJRkNUVUMtREVJMQ0wCwYDVQQDDARNeUNBghRnUkKu6LAa+HAvntQRu/b+RAh5
YjANBgkqhkiG9w0BAQsFAAOCAQEAJbjfaz0GgGB2vOJ4a85A/bSVoRAnRl4+aBta
JzHCXELI3QhBKGucAm9oEYr9hVkLH655aSMJu680H1L5aQvPtitwIT0hQn2DHHU5
VtxRqcXOmTQPULclk/TrH3nc4/px2lV5q+R5Zx3pr2siBW2wg4r6u7IRaluz0FJ+
Y394e94QVvDc72j/wsnFlrU0o5fe4pvXxVFHeb4AXLt54nCOpCE6ycOOIKRz2iEE
p6Zj1dkmXNZB3baCpoiUq6iIHs8Eu1yFxQPtcBjakgoT+fyqOJUEOlqMlC/HCVI4
SbBVYZI9pLIOJgu3tXr8YtKGBqkykvEPNFMCeWX5DAmdYNEWEA==
-----END CERTIFICATE-----
