Certificate:
    Data:
        Version: 3 (0x2)
        Serial Number: 3 (0x3)
        Signature Algorithm: sha256WithRSAEncryption
        Issuer: C=PT, ST=Coimbra, L=Coimbra, O=UC, OU=FCTUC-DEI, CN=MyCA
        Validity
            Not Before: Mar 16 10:48:16 2021 GMT
            Not After : Mar 16 10:48:16 2022 GMT
        Subject: C=PT, ST=Coimbra, O=UC, OU=FCTUC-DEI, CN=CoimbraServer
        Subject Public Key Info:
            Public Key Algorithm: rsaEncryption
                RSA Public-Key: (2048 bit)
                Modulus:
                    00:c8:42:61:1a:c6:dc:53:6c:b4:ae:a2:01:c8:77:
                    8a:a1:39:df:4d:3c:34:f4:3d:9b:dd:ee:65:39:39:
                    32:86:af:2a:4c:ae:b3:23:73:3f:e8:c8:89:54:8d:
                    28:bd:75:72:61:48:41:6d:90:62:7b:dc:25:7e:9e:
                    6c:32:b0:70:5c:fa:1f:1c:5c:c5:02:e8:68:5c:92:
                    55:5d:07:a1:73:aa:2b:1d:36:e6:d2:57:ac:e7:c7:
                    ee:a7:2e:a8:b2:db:d5:52:40:eb:0e:9d:4b:35:16:
                    58:28:1b:fd:5b:d8:97:a4:eb:a8:8a:b4:ba:da:e6:
                    bb:df:2d:dc:9f:23:2b:13:63:80:c4:f8:46:1a:ca:
                    03:3d:bf:46:f7:6d:5b:43:bc:f6:9b:d4:b0:d1:4c:
                    12:f5:9d:e8:47:28:3c:c4:17:af:47:be:ba:fd:2d:
                    d2:20:00:ca:bf:76:e7:89:20:b5:ab:1e:64:8c:c3:
                    12:c3:2b:fd:2f:d3:97:6b:70:c0:a1:7a:44:79:25:
                    50:cf:d4:f2:6d:67:e7:8d:51:2b:d3:83:cd:7b:61:
                    05:10:1c:cf:eb:1f:f5:63:a5:83:43:78:47:12:aa:
                    cc:39:7a:26:d0:4c:a7:8e:47:89:59:ba:10:9a:50:
                    57:1c:a7:2a:69:a0:19:4e:d7:f9:00:bc:88:19:22:
                    df:03
                Exponent: 65537 (0x10001)
        X509v3 extensions:
            X509v3 Basic Constraints: 
                CA:FALSE
            Netscape Comment: 
                OpenSSL Generated Certificate
            X509v3 Subject Key Identifier: 
                AF:A3:9C:F1:3A:86:BB:9F:B3:24:7D:E3:20:45:A3:B4:7A:17:68:58
            X509v3 Authority Key Identifier: 
                DirName:/C=PT/ST=Coimbra/L=Coimbra/O=UC/OU=FCTUC-DEI/CN=MyCA
                serial:67:52:42:AE:E8:B0:1A:F8:70:2F:9E:D4:11:BB:F6:FE:44:08:79:62

    Signature Algorithm: sha256WithRSAEncryption
         4b:c0:a2:a3:0f:42:94:75:42:ea:e4:05:b2:28:be:af:25:e2:
         08:15:f5:ac:be:a3:82:4a:5b:e0:78:c3:86:d2:ce:19:15:77:
         e7:4d:77:fa:4d:c7:16:59:25:8c:59:d0:80:9d:fc:a5:57:c5:
         cd:63:84:3a:8c:38:41:9f:4c:7b:1b:9d:d2:50:b2:04:0d:8a:
         91:44:32:da:1c:c6:54:f2:fc:ec:78:ff:f4:86:f3:6d:e7:f6:
         77:21:3e:69:c9:e1:6e:65:f9:11:28:76:86:f4:63:d0:54:2d:
         e0:ac:01:87:5b:a6:4a:8b:01:38:db:ed:97:82:5f:ee:fd:07:
         9b:1f:33:3d:a2:89:aa:19:f3:6d:82:ff:80:14:3d:52:63:c5:
         35:34:7f:8a:58:d3:03:d8:48:84:50:6b:26:87:c4:22:3f:c7:
         3d:e9:e4:6d:c6:51:e6:9c:8c:27:84:01:58:7d:2a:9a:5d:5a:
         75:01:70:9f:74:66:6b:9f:ce:ab:51:fa:5d:c8:db:d1:77:b5:
         0e:9f:ad:f0:b6:8f:22:62:cf:43:00:aa:5a:8c:b7:74:41:6e:
         9a:9b:8f:ca:fb:a3:3d:f1:3c:76:10:52:7d:6e:58:01:1f:77:
         ec:0e:21:54:32:83:78:6d:f4:bb:8b:d1:a9:f9:41:85:ae:85:
         b8:09:aa:80
-----BEGIN CERTIFICATE-----
MIIEGTCCAwGgAwIBAgIBAzANBgkqhkiG9w0BAQsFADBhMQswCQYDVQQGEwJQVDEQ
MA4GA1UECAwHQ29pbWJyYTEQMA4GA1UEBwwHQ29pbWJyYTELMAkGA1UECgwCVUMx
EjAQBgNVBAsMCUZDVFVDLURFSTENMAsGA1UEAwwETXlDQTAeFw0yMTAzMTYxMDQ4
MTZaFw0yMjAzMTYxMDQ4MTZaMFgxCzAJBgNVBAYTAlBUMRAwDgYDVQQIDAdDb2lt
YnJhMQswCQYDVQQKDAJVQzESMBAGA1UECwwJRkNUVUMtREVJMRYwFAYDVQQDDA1D
b2ltYnJhU2VydmVyMIIBIjANBgkqhkiG9w0BAQEFAAOCAQ8AMIIBCgKCAQEAyEJh
GsbcU2y0rqIByHeKoTnfTTw09D2b3e5lOTkyhq8qTK6zI3M/6MiJVI0ovXVyYUhB
bZBie9wlfp5sMrBwXPofHFzFAuhoXJJVXQehc6orHTbm0les58fupy6ostvVUkDr
Dp1LNRZYKBv9W9iXpOuoirS62ua73y3cnyMrE2OAxPhGGsoDPb9G921bQ7z2m9Sw
0UwS9Z3oRyg8xBevR766/S3SIADKv3bniSC1qx5kjMMSwyv9L9OXa3DAoXpEeSVQ
z9TybWfnjVEr04PNe2EFEBzP6x/1Y6WDQ3hHEqrMOXom0EynjkeJWboQmlBXHKcq
aaAZTtf5ALyIGSLfAwIDAQABo4HkMIHhMAkGA1UdEwQCMAAwLAYJYIZIAYb4QgEN
BB8WHU9wZW5TU0wgR2VuZXJhdGVkIENlcnRpZmljYXRlMB0GA1UdDgQWBBSvo5zx
Ooa7n7MkfeMgRaO0ehdoWDCBhgYDVR0jBH8wfaFlpGMwYTELMAkGA1UEBhMCUFQx
EDAOBgNVBAgMB0NvaW1icmExEDAOBgNVBAcMB0NvaW1icmExCzAJBgNVBAoMAlVD
MRIwEAYDVQQLDAlGQ1RVQy1ERUkxDTALBgNVBAMMBE15Q0GCFGdSQq7osBr4cC+e
1BG79v5ECHliMA0GCSqGSIb3DQEBCwUAA4IBAQBLwKKjD0KUdULq5AWyKL6vJeII
FfWsvqOCSlvgeMOG0s4ZFXfnTXf6TccWWSWMWdCAnfylV8XNY4Q6jDhBn0x7G53S
ULIEDYqRRDLaHMZU8vzseP/0hvNt5/Z3IT5pyeFuZfkRKHaG9GPQVC3grAGHW6ZK
iwE42+2Xgl/u/QebHzM9oomqGfNtgv+AFD1SY8U1NH+KWNMD2EiEUGsmh8QiP8c9
6eRtxlHmnIwnhAFYfSqaXVp1AXCfdGZrn86rUfpdyNvRd7UOn63wto8iYs9DAKpa
jLd0QW6am4/K+6M98Tx2EFJ9blgBH3fsDiFUMoN4bfS7i9Gp+UGFroW4CaqA
-----END CERTIFICATE-----
