Certificate:
    Data:
        Version: 3 (0x2)
        Serial Number: 4 (0x4)
        Signature Algorithm: sha256WithRSAEncryption
        Issuer: C=PT, ST=Coimbra, L=Coimbra, O=UC, OU=FCTUC-DEI, CN=MyCA
        Validity
            Not Before: Mar 16 10:50:16 2021 GMT
            Not After : Mar 16 10:50:16 2022 GMT
        Subject: C=PT, ST=Coimbra, O=UC, OU=FCTUC-DEI, CN=LisboaServer
        Subject Public Key Info:
            Public Key Algorithm: rsaEncryption
                RSA Public-Key: (2048 bit)
                Modulus:
                    00:c2:3c:29:84:0a:41:39:11:54:c3:07:21:36:24:
                    5a:96:d1:2a:93:df:46:26:80:63:1e:2e:11:65:e5:
                    a8:80:60:91:d7:e2:92:af:4c:5d:36:09:0e:37:5b:
                    06:06:50:3d:6a:68:49:01:f4:03:b5:0f:53:6e:cd:
                    32:c1:b3:ec:51:f2:89:d7:cd:e7:81:28:e2:1e:d9:
                    07:61:c5:b3:bf:70:87:13:08:15:80:26:79:75:5a:
                    84:59:ab:4e:d8:86:bc:8c:4d:ba:26:4c:a7:ac:25:
                    3b:a3:63:bc:48:00:59:d2:13:1b:8d:a3:fb:b8:e5:
                    b2:b6:60:7e:6f:28:74:fe:20:34:ef:22:c9:0a:42:
                    bd:c4:69:1c:cb:32:5a:ce:7f:02:9e:6e:54:a7:8c:
                    1c:16:af:21:d9:ae:2d:52:97:96:0f:21:2e:04:42:
                    59:11:cf:34:43:a9:a0:43:6d:52:52:a6:33:c7:35:
                    19:89:a2:70:d2:3d:d1:37:4a:3c:46:4d:d1:ca:fd:
                    0c:01:73:b3:47:38:a2:ea:bf:5e:be:2e:ec:c3:1e:
                    b3:2f:95:a6:cd:e6:9a:f9:8e:ea:c2:43:fc:9b:8f:
                    dd:58:84:d6:b1:cc:6b:04:22:2b:bf:e7:78:4f:42:
                    30:b3:8b:64:74:99:4b:0e:83:87:8e:b9:b3:bf:a5:
                    b8:69
                Exponent: 65537 (0x10001)
        X509v3 extensions:
            X509v3 Basic Constraints: 
                CA:FALSE
            Netscape Comment: 
                OpenSSL Generated Certificate
            X509v3 Subject Key Identifier: 
                77:3B:9C:68:BB:D6:4A:FE:76:53:CD:3E:96:0C:0A:28:C9:41:E4:F5
            X509v3 Authority Key Identifier: 
                DirName:/C=PT/ST=Coimbra/L=Coimbra/O=UC/OU=FCTUC-DEI/CN=MyCA
                serial:67:52:42:AE:E8:B0:1A:F8:70:2F:9E:D4:11:BB:F6:FE:44:08:79:62

    Signature Algorithm: sha256WithRSAEncryption
         36:29:01:aa:e0:c8:da:e2:fe:d4:22:49:21:7b:15:57:6d:96:
         12:2a:ec:94:2e:58:6f:8e:2c:93:ae:e7:5a:98:2d:0f:8a:7c:
         c9:75:eb:70:e5:18:8c:a8:74:bc:8e:6a:1a:fa:8b:7b:3c:d6:
         3d:06:f0:f0:66:0e:a8:09:13:a9:39:15:6b:7d:91:70:a2:30:
         77:ae:a5:48:98:91:e4:9c:ec:9a:21:ec:f0:19:a4:77:ad:7f:
         7c:54:4b:a7:e9:97:81:a5:4c:81:a1:f3:0c:6c:eb:c1:08:f7:
         2c:bf:70:71:c2:a0:de:0a:2c:d6:d1:d8:3f:76:74:d4:56:8e:
         23:96:95:45:7a:59:4b:07:c7:85:94:00:04:af:42:48:7d:55:
         2d:fe:0c:56:eb:ee:05:5b:89:da:56:f4:7a:7a:2c:e2:88:4a:
         f7:1a:69:c4:68:db:2f:5c:64:42:63:55:7f:00:ee:8b:c3:b1:
         7e:7d:e4:64:f1:e0:17:24:fc:21:b6:df:87:69:eb:cc:aa:07:
         60:ab:fe:c0:5b:13:30:84:0f:98:7d:41:4b:a8:d4:14:fe:45:
         68:28:15:4a:5e:40:67:42:d8:05:e1:79:e7:30:0f:ff:9d:9d:
         55:09:6b:37:b3:ab:d0:eb:c8:d7:55:69:ed:92:d0:1a:88:6f:
         ab:71:30:3f
-----BEGIN CERTIFICATE-----
MIIEGDCCAwCgAwIBAgIBBDANBgkqhkiG9w0BAQsFADBhMQswCQYDVQQGEwJQVDEQ
MA4GA1UECAwHQ29pbWJyYTEQMA4GA1UEBwwHQ29pbWJyYTELMAkGA1UECgwCVUMx
EjAQBgNVBAsMCUZDVFVDLURFSTENMAsGA1UEAwwETXlDQTAeFw0yMTAzMTYxMDUw
MTZaFw0yMjAzMTYxMDUwMTZaMFcxCzAJBgNVBAYTAlBUMRAwDgYDVQQIDAdDb2lt
YnJhMQswCQYDVQQKDAJVQzESMBAGA1UECwwJRkNUVUMtREVJMRUwEwYDVQQDDAxM
aXNib2FTZXJ2ZXIwggEiMA0GCSqGSIb3DQEBAQUAA4IBDwAwggEKAoIBAQDCPCmE
CkE5EVTDByE2JFqW0SqT30YmgGMeLhFl5aiAYJHX4pKvTF02CQ43WwYGUD1qaEkB
9AO1D1NuzTLBs+xR8onXzeeBKOIe2QdhxbO/cIcTCBWAJnl1WoRZq07YhryMTbom
TKesJTujY7xIAFnSExuNo/u45bK2YH5vKHT+IDTvIskKQr3EaRzLMlrOfwKeblSn
jBwWryHZri1Sl5YPIS4EQlkRzzRDqaBDbVJSpjPHNRmJonDSPdE3SjxGTdHK/QwB
c7NHOKLqv16+LuzDHrMvlabN5pr5jurCQ/ybj91YhNaxzGsEIiu/53hPQjCzi2R0
mUsOg4eOubO/pbhpAgMBAAGjgeQwgeEwCQYDVR0TBAIwADAsBglghkgBhvhCAQ0E
HxYdT3BlblNTTCBHZW5lcmF0ZWQgQ2VydGlmaWNhdGUwHQYDVR0OBBYEFHc7nGi7
1kr+dlPNPpYMCijJQeT1MIGGBgNVHSMEfzB9oWWkYzBhMQswCQYDVQQGEwJQVDEQ
MA4GA1UECAwHQ29pbWJyYTEQMA4GA1UEBwwHQ29pbWJyYTELMAkGA1UECgwCVUMx
EjAQBgNVBAsMCUZDVFVDLURFSTENMAsGA1UEAwwETXlDQYIUZ1JCruiwGvhwL57U
Ebv2/kQIeWIwDQYJKoZIhvcNAQELBQADggEBADYpAargyNri/tQiSSF7FVdtlhIq
7JQuWG+OLJOu51qYLQ+KfMl163DlGIyodLyOahr6i3s81j0G8PBmDqgJE6k5FWt9
kXCiMHeupUiYkeSc7Joh7PAZpHetf3xUS6fpl4GlTIGh8wxs68EI9yy/cHHCoN4K
LNbR2D92dNRWjiOWlUV6WUsHx4WUAASvQkh9VS3+DFbr7gVbidpW9Hp6LOKISvca
acRo2y9cZEJjVX8A7ovDsX595GTx4Bck/CG234dp68yqB2Cr/sBbEzCED5h9QUuo
1BT+RWgoFUpeQGdC2AXheecwD/+dnVUJazezq9DryNdVae2S0BqIb6txMD8=
-----END CERTIFICATE-----
