Certificate:
    Data:
        Version: 3 (0x2)
        Serial Number: 1 (0x1)
        Signature Algorithm: sha256WithRSAEncryption
        Issuer: C=PT, ST=Coimbra, L=Coimbra, O=UC, OU=FCTUC-DEI, CN=MyCA
        Validity
            Not Before: Mar 13 19:05:35 2021 GMT
            Not After : Mar 13 19:05:35 2022 GMT
        Subject: C=PT, ST=Coimbra, O=UC, OU=FCTUC-DEI, CN=roadwarrior
        Subject Public Key Info:
            Public Key Algorithm: rsaEncryption
                RSA Public-Key: (2048 bit)
                Modulus:
                    00:c5:67:9c:3f:34:45:77:e7:b4:80:46:3c:ae:33:
                    ba:fc:4e:ba:55:ef:37:c5:db:62:0e:c5:7b:32:41:
                    54:e7:b9:a2:d0:a0:07:6c:ce:aa:ad:ec:47:1c:0e:
                    34:e7:62:41:52:e5:11:f3:d9:94:d1:f4:7d:8d:ac:
                    00:3c:42:d2:2e:e6:6b:1e:d0:b9:a5:54:79:c9:e0:
                    17:4b:c0:dd:f6:aa:8f:e2:52:04:8e:fb:61:2d:1c:
                    2e:2f:98:4c:d6:4e:95:1c:0d:2e:0d:f4:24:4f:36:
                    a8:b2:6c:1e:9d:fc:d2:88:5e:e2:65:3d:2c:73:e3:
                    e0:2f:8a:0d:19:e9:4f:9d:28:f3:c5:45:70:4e:50:
                    b2:ea:f6:65:93:ac:71:49:03:0a:2e:1a:05:80:b1:
                    40:01:28:72:2b:4c:2f:ef:37:e1:a6:11:64:31:13:
                    f4:32:e6:df:62:80:75:54:19:1c:21:7f:7f:a4:ef:
                    49:55:bc:3a:82:0d:f1:b7:51:33:99:0e:ce:b3:92:
                    d8:dd:9f:03:ed:a1:be:7e:82:3a:de:56:28:37:5c:
                    d0:d0:6e:b7:f3:dd:9e:8c:43:8e:3a:53:f2:6b:61:
                    50:da:b8:49:55:2e:8a:48:55:bf:b4:31:9b:77:57:
                    26:8b:06:0c:f5:28:be:4d:d9:97:6c:cd:e9:b5:64:
                    fe:e3
                Exponent: 65537 (0x10001)
        X509v3 extensions:
            X509v3 Basic Constraints: 
                CA:FALSE
            Netscape Comment: 
                OpenSSL Generated Certificate
            X509v3 Subject Key Identifier: 
                F6:48:F7:47:0C:7D:EB:55:76:A2:62:49:02:20:33:6B:90:16:58:3A
            X509v3 Authority Key Identifier: 
                DirName:/C=PT/ST=Coimbra/L=Coimbra/O=UC/OU=FCTUC-DEI/CN=MyCA
                serial:67:52:42:AE:E8:B0:1A:F8:70:2F:9E:D4:11:BB:F6:FE:44:08:79:62

    Signature Algorithm: sha256WithRSAEncryption
         80:9e:07:44:6c:80:92:ed:7f:98:05:9c:33:f2:87:b3:4f:e2:
         91:45:06:5c:3d:44:fb:83:92:af:3e:3b:c4:5a:1b:7e:dd:16:
         9d:c2:7a:28:ba:f4:f6:d2:a5:54:c3:a5:7f:b3:8c:96:bc:6a:
         95:bc:76:18:f8:47:fe:63:57:09:4f:89:34:58:84:ed:ee:b4:
         8e:30:27:26:14:5e:b7:9a:32:7a:be:1f:10:d3:e9:f4:e9:3a:
         ad:22:23:06:3c:f6:ea:40:73:31:95:66:11:4f:30:a1:1f:c5:
         93:c2:87:ea:d6:89:3f:48:26:78:24:44:25:be:af:c3:2c:4b:
         e8:c9:ee:5a:de:ae:f0:41:20:ce:bd:21:4f:d0:62:cd:ff:18:
         07:8a:2a:89:dc:23:be:c2:18:18:c2:ec:34:0a:ad:cb:10:8d:
         87:95:71:86:dd:57:75:0a:02:3e:8b:c0:77:af:94:47:d4:78:
         6d:6d:1b:29:67:3a:fd:c3:44:fd:1f:49:82:a6:1f:09:0f:28:
         61:db:11:c7:5e:36:6f:40:27:ef:8a:b9:e4:62:81:bf:df:8b:
         9d:88:09:75:9c:17:c1:1e:15:a4:a6:32:f6:c9:25:4c:f1:40:
         d8:19:3b:94:54:aa:53:5c:2d:5a:0a:ee:a8:2e:27:97:ce:c2:
         76:1b:ea:76
-----BEGIN CERTIFICATE-----
MIIEFzCCAv+gAwIBAgIBATANBgkqhkiG9w0BAQsFADBhMQswCQYDVQQGEwJQVDEQ
MA4GA1UECAwHQ29pbWJyYTEQMA4GA1UEBwwHQ29pbWJyYTELMAkGA1UECgwCVUMx
EjAQBgNVBAsMCUZDVFVDLURFSTENMAsGA1UEAwwETXlDQTAeFw0yMTAzMTMxOTA1
MzVaFw0yMjAzMTMxOTA1MzVaMFYxCzAJBgNVBAYTAlBUMRAwDgYDVQQIDAdDb2lt
YnJhMQswCQYDVQQKDAJVQzESMBAGA1UECwwJRkNUVUMtREVJMRQwEgYDVQQDDAty
b2Fkd2FycmlvcjCCASIwDQYJKoZIhvcNAQEBBQADggEPADCCAQoCggEBAMVnnD80
RXfntIBGPK4zuvxOulXvN8XbYg7FezJBVOe5otCgB2zOqq3sRxwONOdiQVLlEfPZ
lNH0fY2sADxC0i7max7QuaVUecngF0vA3faqj+JSBI77YS0cLi+YTNZOlRwNLg30
JE82qLJsHp380ohe4mU9LHPj4C+KDRnpT50o88VFcE5Qsur2ZZOscUkDCi4aBYCx
QAEocitML+834aYRZDET9DLm32KAdVQZHCF/f6TvSVW8OoIN8bdRM5kOzrOS2N2f
A+2hvn6COt5WKDdc0NBut/PdnoxDjjpT8mthUNq4SVUuikhVv7Qxm3dXJosGDPUo
vk3Zl2zN6bVk/uMCAwEAAaOB5DCB4TAJBgNVHRMEAjAAMCwGCWCGSAGG+EIBDQQf
Fh1PcGVuU1NMIEdlbmVyYXRlZCBDZXJ0aWZpY2F0ZTAdBgNVHQ4EFgQU9kj3Rwx9
61V2omJJAiAza5AWWDowgYYGA1UdIwR/MH2hZaRjMGExCzAJBgNVBAYTAlBUMRAw
DgYDVQQIDAdDb2ltYnJhMRAwDgYDVQQHDAdDb2ltYnJhMQswCQYDVQQKDAJVQzES
MBAGA1UECwwJRkNUVUMtREVJMQ0wCwYDVQQDDARNeUNBghRnUkKu6LAa+HAvntQR
u/b+RAh5YjANBgkqhkiG9w0BAQsFAAOCAQEAgJ4HRGyAku1/mAWcM/KHs0/ikUUG
XD1E+4OSrz47xFobft0WncJ6KLr09tKlVMOlf7OMlrxqlbx2GPhH/mNXCU+JNFiE
7e60jjAnJhRet5oyer4fENPp9Ok6rSIjBjz26kBzMZVmEU8woR/Fk8KH6taJP0gm
eCREJb6vwyxL6MnuWt6u8EEgzr0hT9Bizf8YB4oqidwjvsIYGMLsNAqtyxCNh5Vx
ht1XdQoCPovAd6+UR9R4bW0bKWc6/cNE/R9JgqYfCQ8oYdsRx142b0An74q55GKB
v9+LnYgJdZwXwR4VpKYy9sklTPFA2Bk7lFSqU1wtWgruqC4nl87Cdhvqdg==
-----END CERTIFICATE-----
